target datalayout = "e-m:e-p270:32:32-p271:32:32-p272:64:64-i64:64-i128:128-f80:128-n8:16:32:64-S128"
target triple = "x86_64-pc-linux-gnu"

%struct.PJconsts = type { ptr, ptr, ptr, ptr, ptr, ptr, ptr, ptr, ptr, ptr, ptr, ptr, i32, ptr, ptr, ptr, ptr, ptr, ptr, ptr, ptr, double, double, double, double, double, double, double, double, double, double, double, double, double, double, double, double, double, double, double, double, double, double, i32, i32, i32, i32, i32, i32, i32, i32, i32, i32, i32, ptr, ptr, ptr, ptr, ptr, ptr, double, double, double, double, double, double, double, double, double, double, double, i32, [7 x double], i32, ptr, ptr, double, double, i32, [4 x i8], %"class.std::shared_ptr", i8, double, i8, %"class.std::__cxx11::basic_string", %"class.std::__cxx11::basic_string", %"class.std::__cxx11::basic_string", i8, %"class.std::vector", i32, %"class.std::vector.3", i32, i8, i8, i8, ptr }
%"class.std::shared_ptr" = type { %"class.std::__shared_ptr" }
%"class.std::__shared_ptr" = type { ptr, %"class.std::__shared_count" }
%"class.std::__shared_count" = type { ptr }
%"class.std::__cxx11::basic_string" = type { %"struct.std::__cxx11::basic_string<char>::_Alloc_hider", i64, %union.anon }
%"struct.std::__cxx11::basic_string<char>::_Alloc_hider" = type { ptr }
%union.anon = type { i64, [8 x i8] }
%"class.std::vector" = type { %"struct.std::_Vector_base" }
%"struct.std::_Vector_base" = type { %"struct.std::_Vector_base<osgeo::proj::operation::GridDescription, std::allocator<osgeo::proj::operation::GridDescription>>::_Vector_impl" }
%"struct.std::_Vector_base<osgeo::proj::operation::GridDescription, std::allocator<osgeo::proj::operation::GridDescription>>::_Vector_impl" = type { %"struct.std::_Vector_base<osgeo::proj::operation::GridDescription, std::allocator<osgeo::proj::operation::GridDescription>>::_Vector_impl_data" }
%"struct.std::_Vector_base<osgeo::proj::operation::GridDescription, std::allocator<osgeo::proj::operation::GridDescription>>::_Vector_impl_data" = type { ptr, ptr, ptr }
%"class.std::vector.3" = type { %"struct.std::_Vector_base.4" }
%"struct.std::_Vector_base.4" = type { %"struct.std::_Vector_base<PJCoordOperation, std::allocator<PJCoordOperation>>::_Vector_impl" }
%"struct.std::_Vector_base<PJCoordOperation, std::allocator<PJCoordOperation>>::_Vector_impl" = type { %"struct.std::_Vector_base<PJCoordOperation, std::allocator<PJCoordOperation>>::_Vector_impl_data" }
%"struct.std::_Vector_base<PJCoordOperation, std::allocator<PJCoordOperation>>::_Vector_impl_data" = type { ptr, ptr, ptr }
%union.PROJVALUE = type { double }
%"struct.(anonymous namespace)::pj_rpoly_data" = type { double, double, double, i32 }

@_ZL9des_rpoly = internal constant [51 x i8] c"Rectangular Polyconic\0A\09Conic, Sph, no inv\0A\09lat_ts=\00", align 16
@.str = private unnamed_addr constant [6 x i8] c"rpoly\00", align 1
@.str.1 = private unnamed_addr constant [8 x i8] c"rlat_ts\00", align 1

; Function Attrs: mustprogress uwtable
define hidden noundef ptr @_Z34pj_projection_specific_setup_rpolyP8PJconsts(ptr noundef %0) #0 {
  %2 = alloca ptr, align 8
  %3 = alloca ptr, align 8
  %4 = alloca ptr, align 8
  %5 = alloca i32, align 4
  %6 = alloca %union.PROJVALUE, align 8
  store ptr %0, ptr %3, align 8, !tbaa !3
  call void @llvm.lifetime.start.p0(i64 8, ptr %4) #8
  %7 = call noalias ptr @calloc(i64 noundef 1, i64 noundef 32) #9
  store ptr %7, ptr %4, align 8, !tbaa !41
  %8 = load ptr, ptr %4, align 8, !tbaa !41
  %9 = icmp eq ptr null, %8
  br i1 %9, label %10, label %13

10:                                               ; preds = %1
  %11 = load ptr, ptr %3, align 8, !tbaa !3
  %12 = call noundef ptr @_Z21pj_default_destructorP8PJconstsi(ptr noundef %11, i32 noundef 4096)
  store ptr %12, ptr %2, align 8
  store i32 1, ptr %5, align 4
  br label %60

13:                                               ; preds = %1
  %14 = load ptr, ptr %4, align 8, !tbaa !41
  %15 = load ptr, ptr %3, align 8, !tbaa !3
  %16 = getelementptr inbounds nuw %struct.PJconsts, ptr %15, i32 0, i32 11
  store ptr %14, ptr %16, align 8, !tbaa !43
  call void @llvm.lifetime.start.p0(i64 8, ptr %6) #8
  %17 = load ptr, ptr %3, align 8, !tbaa !3
  %18 = getelementptr inbounds nuw %struct.PJconsts, ptr %17, i32 0, i32 0
  %19 = load ptr, ptr %18, align 8, !tbaa !44
  %20 = load ptr, ptr %3, align 8, !tbaa !3
  %21 = getelementptr inbounds nuw %struct.PJconsts, ptr %20, i32 0, i32 3
  %22 = load ptr, ptr %21, align 8, !tbaa !45
  %23 = call i64 @_Z8pj_paramP6pj_ctxP8ARG_listPKc(ptr noundef %19, ptr noundef %22, ptr noundef @.str.1)
  %24 = getelementptr inbounds nuw %union.PROJVALUE, ptr %6, i32 0, i32 0
  store i64 %23, ptr %24, align 8
  %25 = load double, ptr %6, align 8, !tbaa !46
  %26 = call double @llvm.fabs.f64(double %25)
  %27 = load ptr, ptr %4, align 8, !tbaa !41
  %28 = getelementptr inbounds nuw %"struct.(anonymous namespace)::pj_rpoly_data", ptr %27, i32 0, i32 0
  store double %26, ptr %28, align 8, !tbaa !47
  call void @llvm.lifetime.end.p0(i64 8, ptr %6) #8
  %29 = load ptr, ptr %4, align 8, !tbaa !41
  %30 = getelementptr inbounds nuw %"struct.(anonymous namespace)::pj_rpoly_data", ptr %29, i32 0, i32 0
  %31 = load double, ptr %30, align 8, !tbaa !47
  %32 = fcmp ogt double %31, 1.000000e-09
  %33 = zext i1 %32 to i32
  %34 = load ptr, ptr %4, align 8, !tbaa !41
  %35 = getelementptr inbounds nuw %"struct.(anonymous namespace)::pj_rpoly_data", ptr %34, i32 0, i32 3
  store i32 %33, ptr %35, align 8, !tbaa !49
  %36 = load ptr, ptr %4, align 8, !tbaa !41
  %37 = getelementptr inbounds nuw %"struct.(anonymous namespace)::pj_rpoly_data", ptr %36, i32 0, i32 3
  %38 = load i32, ptr %37, align 8, !tbaa !49
  %39 = icmp ne i32 %38, 0
  br i1 %39, label %40, label %54

40:                                               ; preds = %13
  %41 = load ptr, ptr %4, align 8, !tbaa !41
  %42 = getelementptr inbounds nuw %"struct.(anonymous namespace)::pj_rpoly_data", ptr %41, i32 0, i32 0
  %43 = load double, ptr %42, align 8, !tbaa !47
  %44 = call double @sin(double noundef %43) #8, !tbaa !50
  %45 = fmul double 5.000000e-01, %44
  %46 = load ptr, ptr %4, align 8, !tbaa !41
  %47 = getelementptr inbounds nuw %"struct.(anonymous namespace)::pj_rpoly_data", ptr %46, i32 0, i32 2
  store double %45, ptr %47, align 8, !tbaa !51
  %48 = load ptr, ptr %4, align 8, !tbaa !41
  %49 = getelementptr inbounds nuw %"struct.(anonymous namespace)::pj_rpoly_data", ptr %48, i32 0, i32 2
  %50 = load double, ptr %49, align 8, !tbaa !51
  %51 = fdiv double 5.000000e-01, %50
  %52 = load ptr, ptr %4, align 8, !tbaa !41
  %53 = getelementptr inbounds nuw %"struct.(anonymous namespace)::pj_rpoly_data", ptr %52, i32 0, i32 1
  store double %51, ptr %53, align 8, !tbaa !52
  br label %54

54:                                               ; preds = %40, %13
  %55 = load ptr, ptr %3, align 8, !tbaa !3
  %56 = getelementptr inbounds nuw %struct.PJconsts, ptr %55, i32 0, i32 27
  store double 0.000000e+00, ptr %56, align 8, !tbaa !53
  %57 = load ptr, ptr %3, align 8, !tbaa !3
  %58 = getelementptr inbounds nuw %struct.PJconsts, ptr %57, i32 0, i32 13
  store ptr @_ZL15rpoly_s_forward5PJ_LPP8PJconsts, ptr %58, align 8, !tbaa !54
  %59 = load ptr, ptr %3, align 8, !tbaa !3
  store ptr %59, ptr %2, align 8
  store i32 1, ptr %5, align 4
  br label %60

60:                                               ; preds = %54, %10
  call void @llvm.lifetime.end.p0(i64 8, ptr %4) #8
  %61 = load ptr, ptr %2, align 8
  ret ptr %61
}

; Function Attrs: mustprogress uwtable
define hidden ptr @pj_rpoly(ptr noundef %0) #0 {
  %2 = alloca ptr, align 8
  %3 = alloca ptr, align 8
  store ptr %0, ptr %3, align 8, !tbaa !3
  %4 = load ptr, ptr %3, align 8, !tbaa !3
  %5 = icmp ne ptr %4, null
  br i1 %5, label %6, label %9

6:                                                ; preds = %1
  %7 = load ptr, ptr %3, align 8, !tbaa !3
  %8 = call noundef ptr @_Z34pj_projection_specific_setup_rpolyP8PJconsts(ptr noundef %7)
  store ptr %8, ptr %2, align 8
  br label %26

9:                                                ; preds = %1
  %10 = call noundef ptr @_Z6pj_newv()
  store ptr %10, ptr %3, align 8, !tbaa !3
  %11 = load ptr, ptr %3, align 8, !tbaa !3
  %12 = icmp eq ptr null, %11
  br i1 %12, label %13, label %14

13:                                               ; preds = %9
  store ptr null, ptr %2, align 8
  br label %26

14:                                               ; preds = %9
  %15 = load ptr, ptr %3, align 8, !tbaa !3
  %16 = getelementptr inbounds nuw %struct.PJconsts, ptr %15, i32 0, i32 1
  store ptr @.str, ptr %16, align 8, !tbaa !8
  %17 = load ptr, ptr %3, align 8, !tbaa !3
  %18 = getelementptr inbounds nuw %struct.PJconsts, ptr %17, i32 0, i32 2
  store ptr @_ZL9des_rpoly, ptr %18, align 8, !tbaa !37
  %19 = load ptr, ptr %3, align 8, !tbaa !3
  %20 = getelementptr inbounds nuw %struct.PJconsts, ptr %19, i32 0, i32 47
  store i32 1, ptr %20, align 8, !tbaa !38
  %21 = load ptr, ptr %3, align 8, !tbaa !3
  %22 = getelementptr inbounds nuw %struct.PJconsts, ptr %21, i32 0, i32 52
  store i32 4, ptr %22, align 4, !tbaa !39
  %23 = load ptr, ptr %3, align 8, !tbaa !3
  %24 = getelementptr inbounds nuw %struct.PJconsts, ptr %23, i32 0, i32 53
  store i32 1, ptr %24, align 8, !tbaa !40
  %25 = load ptr, ptr %3, align 8, !tbaa !3
  store ptr %25, ptr %2, align 8
  br label %26

26:                                               ; preds = %14, %13, %6
  %27 = load ptr, ptr %2, align 8
  ret ptr %27
}