; Function Attrs: mustprogress uwtable
define hidden noundef ptr @pj_rpoly(ptr noundef %0) local_unnamed_addr #0 {
  %.not = icmp eq ptr %0, null
  br i1 %.not, label %27, label %2

2:                                                ; preds = %1
  %3 = tail call noalias dereferenceable_or_null(32) ptr @calloc(i64 noundef 1, i64 noundef 32) #6
  %4 = icmp eq ptr %3, null
  br i1 %4, label %5, label %7

5:                                                ; preds = %2
  %6 = tail call noundef ptr @_Z21pj_default_destructorP8PJconstsi(ptr noundef nonnull %0, i32 noundef 4096)
  br label %_Z34pj_projection_specific_setup_rpolyP8PJconsts.exit

7:                                                ; preds = %2
  %8 = getelementptr inbounds nuw i8, ptr %0, i64 88
  store ptr %3, ptr %8, align 8, !tbaa !3
  %9 = load ptr, ptr %0, align 8, !tbaa !36
  %10 = getelementptr inbounds nuw i8, ptr %0, i64 24
  %11 = load ptr, ptr %10, align 8, !tbaa !37
  %12 = tail call i64 @_Z8pj_paramP6pj_ctxP8ARG_listPKc(ptr noundef %9, ptr noundef %11, ptr noundef nonnull @.str.1)
  %13 = bitcast i64 %12 to double
  %14 = tail call double @llvm.fabs.f64(double %13)
  store double %14, ptr %3, align 8, !tbaa !38
  %15 = fcmp ogt double %14, 1.000000e-09
  %16 = zext i1 %15 to i32
  %17 = getelementptr inbounds nuw i8, ptr %3, i64 24
  store i32 %16, ptr %17, align 8, !tbaa !40
  br i1 %15, label %18, label %24

18:                                               ; preds = %7
  %19 = tail call double @sin(double noundef %14) #7, !tbaa !41
  %20 = fmul double %19, 5.000000e-01
  %21 = getelementptr inbounds nuw i8, ptr %3, i64 16
  store double %20, ptr %21, align 8, !tbaa !42
  %22 = fdiv double 5.000000e-01, %20
  %23 = getelementptr inbounds nuw i8, ptr %3, i64 8
  store double %22, ptr %23, align 8, !tbaa !43
  br label %24

24:                                               ; preds = %18, %7
  %25 = getelementptr inbounds nuw i8, ptr %0, i64 216
  store double 0.000000e+00, ptr %25, align 8, !tbaa !44
  %26 = getelementptr inbounds nuw i8, ptr %0, i64 104
  store ptr @_ZL15rpoly_s_forward5PJ_LPP8PJconsts, ptr %26, align 8, !tbaa !45
  br label %_Z34pj_projection_specific_setup_rpolyP8PJconsts.exit

27:                                               ; preds = %1
  %28 = tail call noundef ptr @_Z6pj_newv()
  %29 = icmp eq ptr %28, null
  br i1 %29, label %_Z34pj_projection_specific_setup_rpolyP8PJconsts.exit, label %30

30:                                               ; preds = %27
  %31 = getelementptr inbounds nuw i8, ptr %28, i64 8
  store ptr @.str, ptr %31, align 8, !tbaa !46
  %32 = getelementptr inbounds nuw i8, ptr %28, i64 16
  store ptr @_ZL9des_rpoly, ptr %32, align 8, !tbaa !47
  %33 = getelementptr inbounds nuw i8, ptr %28, i64 360
  store i32 1, ptr %33, align 8, !tbaa !48
  %34 = getelementptr inbounds nuw i8, ptr %28, i64 380
  store i32 4, ptr %34, align 4, !tbaa !49
  %35 = getelementptr inbounds nuw i8, ptr %28, i64 384
  store i32 1, ptr %35, align 8, !tbaa !50
  br label %_Z34pj_projection_specific_setup_rpolyP8PJconsts.exit

_Z34pj_projection_specific_setup_rpolyP8PJconsts.exit: ; preds = %24, %5, %27, %30
  %.0 = phi ptr [ %28, %30 ], [ null, %27 ], [ %6, %5 ], [ %0, %24 ]
  ret ptr %.0
}